target datalayout = "e-m:e-p270:32:32-p271:32:32-p272:64:64-i64:64-i128:128-f80:128-n8:16:32:64-S128"
target triple = "x86_64-pc-linux-gnu"

%struct.BrotliDecoderStateStruct = type { i32, i32, %struct.BrotliBitReader, ptr, ptr, ptr, %union.anon, i64, i32, i32, i32, i32, i32, i32, [4 x i32], i32, i32, ptr, ptr, ptr, ptr, ptr, ptr, %struct.HuffmanTreeGroup, %struct.HuffmanTreeGroup, %struct.HuffmanTreeGroup, ptr, ptr, i32, i32, [3 x i64], i64, [3 x i64], [6 x i64], i64, i64, i64, ptr, ptr, i64, i64, i64, [65 x i32], i32, i32, i8, ptr, ptr, ptr, i64, i32, i32, i32, i32, i32, i32, i64, ptr, ptr, ptr, ptr, [8 x i32], %union.anon.0 }
%struct.BrotliBitReader = type { i64, i64, ptr, ptr, ptr }
%union.anon = type { i64 }
%struct.HuffmanTreeGroup = type { ptr, ptr, i16, i16, i16 }
%union.anon.0 = type { %struct.BrotliMetablockBodyArena }
%struct.BrotliMetablockBodyArena = type { [544 x i8], [544 x i64] }

; Function Attrs: nounwind uwtable
define hidden void @BrotliDecoderStateMetablockBegin(ptr noundef %0) #0 {
  %2 = alloca ptr, align 8
  store ptr %0, ptr %2, align 8, !tbaa !3
  %3 = load ptr, ptr %2, align 8, !tbaa !3
  %4 = getelementptr inbounds nuw %struct.BrotliDecoderStateStruct, ptr %3, i32 0, i32 16
  store i32 0, ptr %4, align 4, !tbaa !59
  %5 = load ptr, ptr %2, align 8, !tbaa !3
  %6 = getelementptr inbounds nuw %struct.BrotliDecoderStateStruct, ptr %5, i32 0, i32 30
  %7 = getelementptr inbounds [3 x i64], ptr %6, i64 0, i64 0
  store i64 16777216, ptr %7, align 8, !tbaa !60
  %8 = load ptr, ptr %2, align 8, !tbaa !3
  %9 = getelementptr inbounds nuw %struct.BrotliDecoderStateStruct, ptr %8, i32 0, i32 30
  %10 = getelementptr inbounds [3 x i64], ptr %9, i64 0, i64 1
  store i64 16777216, ptr %10, align 8, !tbaa !60
  %11 = load ptr, ptr %2, align 8, !tbaa !3
  %12 = getelementptr inbounds nuw %struct.BrotliDecoderStateStruct, ptr %11, i32 0, i32 30
  %13 = getelementptr inbounds [3 x i64], ptr %12, i64 0, i64 2
  store i64 16777216, ptr %13, align 8, !tbaa !60
  %14 = load ptr, ptr %2, align 8, !tbaa !3
  %15 = getelementptr inbounds nuw %struct.BrotliDecoderStateStruct, ptr %14, i32 0, i32 32
  %16 = getelementptr inbounds [3 x i64], ptr %15, i64 0, i64 0
  store i64 1, ptr %16, align 8, !tbaa !60
  %17 = load ptr, ptr %2, align 8, !tbaa !3
  %18 = getelementptr inbounds nuw %struct.BrotliDecoderStateStruct, ptr %17, i32 0, i32 32
  %19 = getelementptr inbounds [3 x i64], ptr %18, i64 0, i64 1
  store i64 1, ptr %19, align 8, !tbaa !60
  %20 = load ptr, ptr %2, align 8, !tbaa !3
  %21 = getelementptr inbounds nuw %struct.BrotliDecoderStateStruct, ptr %20, i32 0, i32 32
  %22 = getelementptr inbounds [3 x i64], ptr %21, i64 0, i64 2
  store i64 1, ptr %22, align 8, !tbaa !60
  %23 = load ptr, ptr %2, align 8, !tbaa !3
  %24 = getelementptr inbounds nuw %struct.BrotliDecoderStateStruct, ptr %23, i32 0, i32 33
  %25 = getelementptr inbounds [6 x i64], ptr %24, i64 0, i64 0
  store i64 1, ptr %25, align 8, !tbaa !60
  %26 = load ptr, ptr %2, align 8, !tbaa !3
  %27 = getelementptr inbounds nuw %struct.BrotliDecoderStateStruct, ptr %26, i32 0, i32 33
  %28 = getelementptr inbounds [6 x i64], ptr %27, i64 0, i64 1
  store i64 0, ptr %28, align 8, !tbaa !60
  %29 = load ptr, ptr %2, align 8, !tbaa !3
  %30 = getelementptr inbounds nuw %struct.BrotliDecoderStateStruct, ptr %29, i32 0, i32 33
  %31 = getelementptr inbounds [6 x i64], ptr %30, i64 0, i64 2
  store i64 1, ptr %31, align 8, !tbaa !60
  %32 = load ptr, ptr %2, align 8, !tbaa !3
  %33 = getelementptr inbounds nuw %struct.BrotliDecoderStateStruct, ptr %32, i32 0, i32 33
  %34 = getelementptr inbounds [6 x i64], ptr %33, i64 0, i64 3
  store i64 0, ptr %34, align 8, !tbaa !60
  %35 = load ptr, ptr %2, align 8, !tbaa !3
  %36 = getelementptr inbounds nuw %struct.BrotliDecoderStateStruct, ptr %35, i32 0, i32 33
  %37 = getelementptr inbounds [6 x i64], ptr %36, i64 0, i64 4
  store i64 1, ptr %37, align 8, !tbaa !60
  %38 = load ptr, ptr %2, align 8, !tbaa !3
  %39 = getelementptr inbounds nuw %struct.BrotliDecoderStateStruct, ptr %38, i32 0, i32 33
  %40 = getelementptr inbounds [6 x i64], ptr %39, i64 0, i64 5
  store i64 0, ptr %40, align 8, !tbaa !60
  %41 = load ptr, ptr %2, align 8, !tbaa !3
  %42 = getelementptr inbounds nuw %struct.BrotliDecoderStateStruct, ptr %41, i32 0, i32 57
  store ptr null, ptr %42, align 8, !tbaa !39
  %43 = load ptr, ptr %2, align 8, !tbaa !3
  %44 = getelementptr inbounds nuw %struct.BrotliDecoderStateStruct, ptr %43, i32 0, i32 58
  store ptr null, ptr %44, align 8, !tbaa !40
  %45 = load ptr, ptr %2, align 8, !tbaa !3
  %46 = getelementptr inbounds nuw %struct.BrotliDecoderStateStruct, ptr %45, i32 0, i32 37
  store ptr null, ptr %46, align 8, !tbaa !41
  %47 = load ptr, ptr %2, align 8, !tbaa !3
  %48 = getelementptr inbounds nuw %struct.BrotliDecoderStateStruct, ptr %47, i32 0, i32 21
  store ptr null, ptr %48, align 8, !tbaa !42
  %49 = load ptr, ptr %2, align 8, !tbaa !3
  %50 = getelementptr inbounds nuw %struct.BrotliDecoderStateStruct, ptr %49, i32 0, i32 38
  store ptr null, ptr %50, align 8, !tbaa !61
  %51 = load ptr, ptr %2, align 8, !tbaa !3
  %52 = getelementptr inbounds nuw %struct.BrotliDecoderStateStruct, ptr %51, i32 0, i32 22
  store ptr null, ptr %52, align 8, !tbaa !43
  %53 = load ptr, ptr %2, align 8, !tbaa !3
  %54 = getelementptr inbounds nuw %struct.BrotliDecoderStateStruct, ptr %53, i32 0, i32 45
  store i8 0, ptr %54, align 4, !tbaa !62
  %55 = load ptr, ptr %2, align 8, !tbaa !3
  %56 = getelementptr inbounds nuw %struct.BrotliDecoderStateStruct, ptr %55, i32 0, i32 20
  store ptr null, ptr %56, align 8, !tbaa !63
  %57 = load ptr, ptr %2, align 8, !tbaa !3
  %58 = getelementptr inbounds nuw %struct.BrotliDecoderStateStruct, ptr %57, i32 0, i32 23
  %59 = getelementptr inbounds nuw %struct.HuffmanTreeGroup, ptr %58, i32 0, i32 1
  store ptr null, ptr %59, align 8, !tbaa !44
  %60 = load ptr, ptr %2, align 8, !tbaa !3
  %61 = getelementptr inbounds nuw %struct.BrotliDecoderStateStruct, ptr %60, i32 0, i32 23
  %62 = getelementptr inbounds nuw %struct.HuffmanTreeGroup, ptr %61, i32 0, i32 0
  store ptr null, ptr %62, align 8, !tbaa !45
  %63 = load ptr, ptr %2, align 8, !tbaa !3
  %64 = getelementptr inbounds nuw %struct.BrotliDecoderStateStruct, ptr %63, i32 0, i32 24
  %65 = getelementptr inbounds nuw %struct.HuffmanTreeGroup, ptr %64, i32 0, i32 1
  store ptr null, ptr %65, align 8, !tbaa !46
  %66 = load ptr, ptr %2, align 8, !tbaa !3
  %67 = getelementptr inbounds nuw %struct.BrotliDecoderStateStruct, ptr %66, i32 0, i32 24
  %68 = getelementptr inbounds nuw %struct.HuffmanTreeGroup, ptr %67, i32 0, i32 0
  store ptr null, ptr %68, align 8, !tbaa !47
  %69 = load ptr, ptr %2, align 8, !tbaa !3
  %70 = getelementptr inbounds nuw %struct.BrotliDecoderStateStruct, ptr %69, i32 0, i32 25
  %71 = getelementptr inbounds nuw %struct.HuffmanTreeGroup, ptr %70, i32 0, i32 1
  store ptr null, ptr %71, align 8, !tbaa !48
  %72 = load ptr, ptr %2, align 8, !tbaa !3
  %73 = getelementptr inbounds nuw %struct.BrotliDecoderStateStruct, ptr %72, i32 0, i32 25
  %74 = getelementptr inbounds nuw %struct.HuffmanTreeGroup, ptr %73, i32 0, i32 0
  store ptr null, ptr %74, align 8, !tbaa !49
  ret void
}