; Function Attrs: mustprogress nofree norecurse nosync nounwind willreturn memory(argmem: write) uwtable
define hidden void @BrotliDecoderStateMetablockBegin(ptr noundef writeonly captures(none) initializes((132, 136), (160, 200), (208, 224), (232, 248), (280, 304), (312, 384), (408, 424), (716, 717), (784, 800)) %0) local_unnamed_addr #2 {
  %2 = getelementptr inbounds nuw i8, ptr %0, i64 132
  store i32 0, ptr %2, align 4, !tbaa !33
  %3 = getelementptr inbounds nuw i8, ptr %0, i64 280
  store i64 16777216, ptr %3, align 8, !tbaa !34
  %4 = getelementptr inbounds nuw i8, ptr %0, i64 288
  store i64 16777216, ptr %4, align 8, !tbaa !34
  %5 = getelementptr inbounds nuw i8, ptr %0, i64 296
  store i64 16777216, ptr %5, align 8, !tbaa !34
  %6 = getelementptr inbounds nuw i8, ptr %0, i64 312
  store i64 1, ptr %6, align 8, !tbaa !34
  %7 = getelementptr inbounds nuw i8, ptr %0, i64 320
  store i64 1, ptr %7, align 8, !tbaa !34
  %8 = getelementptr inbounds nuw i8, ptr %0, i64 328
  store i64 1, ptr %8, align 8, !tbaa !34
  %9 = getelementptr inbounds nuw i8, ptr %0, i64 336
  store i64 1, ptr %9, align 8, !tbaa !34
  %10 = getelementptr inbounds nuw i8, ptr %0, i64 344
  store i64 0, ptr %10, align 8, !tbaa !34
  %11 = getelementptr inbounds nuw i8, ptr %0, i64 352
  store i64 1, ptr %11, align 8, !tbaa !34
  %12 = getelementptr inbounds nuw i8, ptr %0, i64 360
  store i64 0, ptr %12, align 8, !tbaa !34
  %13 = getelementptr inbounds nuw i8, ptr %0, i64 368
  store i64 1, ptr %13, align 8, !tbaa !34
  %14 = getelementptr inbounds nuw i8, ptr %0, i64 376
  store i64 0, ptr %14, align 8, !tbaa !34
  %15 = getelementptr inbounds nuw i8, ptr %0, i64 784
  %16 = getelementptr inbounds nuw i8, ptr %0, i64 408
  %17 = getelementptr inbounds nuw i8, ptr %0, i64 716
  store i8 0, ptr %17, align 4, !tbaa !35
  %18 = getelementptr inbounds nuw i8, ptr %0, i64 160
  %19 = getelementptr inbounds nuw i8, ptr %0, i64 208
  %20 = getelementptr inbounds nuw i8, ptr %0, i64 232
  tail call void @llvm.memset.p0.i64(ptr noundef nonnull align 8 dereferenceable(40) %18, i8 0, i64 40, i1 false)
  tail call void @llvm.memset.p0.i64(ptr noundef nonnull align 8 dereferenceable(16) %19, i8 0, i64 16, i1 false)
  tail call void @llvm.memset.p0.i64(ptr noundef nonnull align 8 dereferenceable(16) %20, i8 0, i64 16, i1 false)
  tail call void @llvm.memset.p0.i64(ptr noundef nonnull align 8 dereferenceable(16) %16, i8 0, i64 16, i1 false)
  tail call void @llvm.memset.p0.i64(ptr noundef nonnull align 8 dereferenceable(16) %15, i8 0, i64 16, i1 false)
  ret void
}